; ModuleID = '1/1969.c'
source_filename = "1/1969.c"
target datalayout = "e-m:e-p270:32:32-p271:32:32-p272:64:64-i64:64-f80:128-n8:16:32:64-S128"
target triple = "x86_64-pc-linux-gnu"

@.str = private unnamed_addr constant [3 x i8] c"%d\00", align 1
@.str.1 = private unnamed_addr constant [4 x i8] c"\0A%d\00", align 1

; Function Attrs: noinline nounwind uwtable
define dso_local i32 @sushu(i32 %0) #0 {
  %2 = alloca i32, align 4
  %3 = alloca i32, align 4
  %4 = alloca i32, align 4
  %5 = alloca i32, align 4
  %6 = alloca i32, align 4
  store i32 %0, i32* %2, align 4
  store i32 2, i32* %3, align 4
  store i32 0, i32* %5, align 4
  br label %7

7:                                                ; preds = %23, %1
  %8 = load i32, i32* %3, align 4
  %9 = load i32, i32* %2, align 4
  %10 = icmp slt i32 %8, %9
  br i1 %10, label %11, label %24

11:                                               ; preds = %7
  %12 = load i32, i32* %2, align 4
  %13 = load i32, i32* %3, align 4
  %14 = srem i32 %12, %13
  store i32 %14, i32* %4, align 4
  %15 = load i32, i32* %4, align 4
  %16 = icmp ne i32 %15, 0
  br i1 %16, label %17, label %22

17:                                               ; preds = %11
  %18 = load i32, i32* %3, align 4
  %19 = add nsw i32 %18, 1
  store i32 %19, i32* %3, align 4
  %20 = load i32, i32* %5, align 4
  %21 = add nsw i32 %20, 1
  store i32 %21, i32* %5, align 4
  br label %23

22:                                               ; preds = %11
  br label %24

23:                                               ; preds = %17
  br label %7

24:                                               ; preds = %22, %7
  %25 = load i32, i32* %5, align 4
  %26 = load i32, i32* %2, align 4
  %27 = sub nsw i32 %26, 2
  %28 = icmp eq i32 %25, %27
  br i1 %28, label %29, label %30

29:                                               ; preds = %24
  store i32 1, i32* %6, align 4
  br label %31

30:                                               ; preds = %24
  store i32 0, i32* %6, align 4
  br label %31

31:                                               ; preds = %30, %29
  %32 = load i32, i32* %6, align 4
  ret i32 %32
}

; Function Attrs: noinline nounwind uwtable
define dso_local i32 @zheng(i32 %0, i32 %1) #0 {
  %3 = alloca i32, align 4
  %4 = alloca i32, align 4
  %5 = alloca i32, align 4
  %6 = alloca i32, align 4
  store i32 %0, i32* %3, align 4
  store i32 %1, i32* %4, align 4
  store i32 1, i32* %5, align 4
  %7 = load i32, i32* %4, align 4
  store i32 %7, i32* %6, align 4
  br label %8

8:                                                ; preds = %34, %2
  %9 = load i32, i32* %6, align 4
  %10 = load i32, i32* %3, align 4
  %11 = sdiv i32 %10, 2
  %12 = icmp slt i32 %9, %11
  br i1 %12, label %13, label %37

13:                                               ; preds = %8
  %14 = load i32, i32* %3, align 4
  %15 = load i32, i32* %6, align 4
  %16 = srem i32 %14, %15
  %17 = icmp eq i32 %16, 0
  br i1 %17, label %18, label %33

18:                                               ; preds = %13
  %19 = load i32, i32* %6, align 4
  %20 = load i32, i32* %3, align 4
  %21 = load i32, i32* %6, align 4
  %22 = sdiv i32 %20, %21
  %23 = icmp sle i32 %19, %22
  br i1 %23, label %24, label %32

24:                                               ; preds = %18
  %25 = load i32, i32* %5, align 4
  %26 = load i32, i32* %3, align 4
  %27 = load i32, i32* %6, align 4
  %28 = sdiv i32 %26, %27
  %29 = load i32, i32* %6, align 4
  %30 = call i32 @zheng(i32 %28, i32 %29)
  %31 = add nsw i32 %25, %30
  store i32 %31, i32* %5, align 4
  br label %32

32:                                               ; preds = %24, %18
  br label %33

33:                                               ; preds = %32, %13
  br label %34

34:                                               ; preds = %33
  %35 = load i32, i32* %6, align 4
  %36 = add nsw i32 %35, 1
  store i32 %36, i32* %6, align 4
  br label %8

37:                                               ; preds = %8
  %38 = load i32, i32* %5, align 4
  ret i32 %38
}

; Function Attrs: noinline nounwind uwtable
define dso_local i32 @main() #0 {
  %1 = alloca i32, align 4
  %2 = alloca i32, align 4
  %3 = alloca i32, align 4
  %4 = alloca i32, align 4
  %5 = alloca i32, align 4
  %6 = alloca [10000 x i32], align 16
  %7 = alloca [40000 x i32], align 16
  store i32 0, i32* %1, align 4
  store i32 0, i32* %4, align 4
  store i32 0, i32* %5, align 4
  %8 = bitcast [10000 x i32]* %6 to i8*
  call void @llvm.memset.p0i8.i64(i8* align 16 %8, i8 0, i64 40000, i1 false)
  %9 = bitcast [40000 x i32]* %7 to i8*
  call void @llvm.memset.p0i8.i64(i8* align 16 %9, i8 0, i64 160000, i1 false)
  %10 = call i32 (i8*, ...) @__isoc99_scanf(i8* getelementptr inbounds ([3 x i8], [3 x i8]* @.str, i64 0, i64 0), i32* %2)
  store i32 0, i32* %3, align 4
  br label %11

11:                                               ; preds = %20, %0
  %12 = load i32, i32* %3, align 4
  %13 = load i32, i32* %2, align 4
  %14 = icmp slt i32 %12, %13
  br i1 %14, label %15, label %23

15:                                               ; preds = %11
  %16 = load i32, i32* %3, align 4
  %17 = sext i32 %16 to i64
  %18 = getelementptr inbounds [40000 x i32], [40000 x i32]* %7, i64 0, i64 %17
  %19 = call i32 (i8*, ...) @__isoc99_scanf(i8* getelementptr inbounds ([3 x i8], [3 x i8]* @.str, i64 0, i64 0), i32* %18)
  br label %20

20:                                               ; preds = %15
  %21 = load i32, i32* %3, align 4
  %22 = add nsw i32 %21, 1
  store i32 %22, i32* %3, align 4
  br label %11

23:                                               ; preds = %11
  store i32 0, i32* %3, align 4
  br label %24

24:                                               ; preds = %49, %23
  %25 = load i32, i32* %3, align 4
  %26 = load i32, i32* %2, align 4
  %27 = icmp slt i32 %25, %26
  br i1 %27, label %28, label %52

28:                                               ; preds = %24
  %29 = load i32, i32* %3, align 4
  %30 = sext i32 %29 to i64
  %31 = getelementptr inbounds [40000 x i32], [40000 x i32]* %7, i64 0, i64 %30
  %32 = load i32, i32* %31, align 4
  %33 = call i32 @sushu(i32 %32)
  %34 = icmp eq i32 %33, 0
  br i1 %34, label %35, label %44

35:                                               ; preds = %28
  %36 = load i32, i32* %3, align 4
  %37 = sext i32 %36 to i64
  %38 = getelementptr inbounds [40000 x i32], [40000 x i32]* %7, i64 0, i64 %37
  %39 = load i32, i32* %38, align 4
  %40 = call i32 @zheng(i32 %39, i32 2)
  %41 = load i32, i32* %3, align 4
  %42 = sext i32 %41 to i64
  %43 = getelementptr inbounds [10000 x i32], [10000 x i32]* %6, i64 0, i64 %42
  store i32 %40, i32* %43, align 4
  br label %48

44:                                               ; preds = %28
  %45 = load i32, i32* %3, align 4
  %46 = sext i32 %45 to i64
  %47 = getelementptr inbounds [10000 x i32], [10000 x i32]* %6, i64 0, i64 %46
  store i32 1, i32* %47, align 4
  br label %48

48:                                               ; preds = %44, %35
  br label %49

49:                                               ; preds = %48
  %50 = load i32, i32* %3, align 4
  %51 = add nsw i32 %50, 1
  store i32 %51, i32* %3, align 4
  br label %24

52:                                               ; preds = %24
  %53 = getelementptr inbounds [10000 x i32], [10000 x i32]* %6, i64 0, i64 0
  %54 = load i32, i32* %53, align 16
  %55 = call i32 (i8*, ...) @printf(i8* getelementptr inbounds ([3 x i8], [3 x i8]* @.str, i64 0, i64 0), i32 %54)
  store i32 1, i32* %3, align 4
  br label %56

56:                                               ; preds = %66, %52
  %57 = load i32, i32* %3, align 4
  %58 = load i32, i32* %2, align 4
  %59 = icmp slt i32 %57, %58
  br i1 %59, label %60, label %69

60:                                               ; preds = %56
  %61 = load i32, i32* %3, align 4
  %62 = sext i32 %61 to i64
  %63 = getelementptr inbounds [10000 x i32], [10000 x i32]* %6, i64 0, i64 %62
  %64 = load i32, i32* %63, align 4
  %65 = call i32 (i8*, ...) @printf(i8* getelementptr inbounds ([4 x i8], [4 x i8]* @.str.1, i64 0, i64 0), i32 %64)
  br label %66

66:                                               ; preds = %60
  %67 = load i32, i32* %3, align 4
  %68 = add nsw i32 %67, 1
  store i32 %68, i32* %3, align 4
  br label %56

69:                                               ; preds = %56
  ret i32 0
}

; Function Attrs: argmemonly nounwind willreturn
declare void @llvm.memset.p0i8.i64(i8* nocapture writeonly, i8, i64, i1 immarg) #1

declare dso_local i32 @__isoc99_scanf(i8*, ...) #2

declare dso_local i32 @printf(i8*, ...) #2


!llvm.module.flags = !{!0}
!llvm.ident = !{!1}

!0 = !{i32 1, !"wchar_size", i32 4}
!1 = !{!"clang version 10.0.0-4ubuntu1 "}
